target datalayout = "e-m:e-p270:32:32-p271:32:32-p272:64:64-i64:64-i128:128-f80:128-n8:16:32:64-S128"
target triple = "x86_64-pc-linux-gnu"

; Function Attrs: nounwind uwtable
define internal float @avifToGammaHLG(float noundef %0) #0 {
  %2 = alloca float, align 4
  %3 = alloca float, align 4
  store float %0, ptr %3, align 4
  %4 = load float, ptr %3, align 4
  %5 = fmul float %4, 2.030000e+02
  %6 = fdiv float %5, 1.000000e+03
  %7 = fcmp olt float %6, 0.000000e+00
  br i1 %7, label %8, label %9

8:                                                ; preds = %1
  br label %21

9:                                                ; preds = %1
  %10 = load float, ptr %3, align 4
  %11 = fmul float %10, 2.030000e+02
  %12 = fdiv float %11, 1.000000e+03
  %13 = fcmp olt float 1.000000e+00, %12
  br i1 %13, label %14, label %15

14:                                               ; preds = %9
  br label %19

15:                                               ; preds = %9
  %16 = load float, ptr %3, align 4
  %17 = fmul float %16, 2.030000e+02
  %18 = fdiv float %17, 1.000000e+03
  br label %19

19:                                               ; preds = %15, %14
  %20 = phi float [ 1.000000e+00, %14 ], [ %18, %15 ]
  br label %21

21:                                               ; preds = %19, %8
  %22 = phi float [ 0.000000e+00, %8 ], [ %20, %19 ]
  store float %22, ptr %3, align 4
  %23 = load float, ptr %3, align 4
  %24 = call float @powf(float noundef %23, float noundef 0x3FEAAAAAA0000000) #4
  store float %24, ptr %3, align 4
  %25 = load float, ptr %3, align 4
  %26 = fcmp olt float %25, 0.000000e+00
  br i1 %26, label %27, label %28

27:                                               ; preds = %21
  store float 0.000000e+00, ptr %2, align 4
  br label %40

28:                                               ; preds = %21
  %29 = load float, ptr %3, align 4
  %30 = fcmp ole float %29, 0x3FB5555560000000
  br i1 %30, label %31, label %35

31:                                               ; preds = %28
  %32 = load float, ptr %3, align 4
  %33 = fmul float 3.000000e+00, %32
  %34 = call float @sqrtf(float noundef %33) #4
  store float %34, ptr %2, align 4
  br label %40

35:                                               ; preds = %28
  %36 = load float, ptr %3, align 4
  %37 = call float @llvm.fmuladd.f32(float 1.200000e+01, float %36, float 0xBFD2380400000000)
  %38 = call float @logf(float noundef %37) #4
  %39 = call float @llvm.fmuladd.f32(float 0x3FC6E3FE00000000, float %38, float 0x3FE1EAC9E0000000)
  store float %39, ptr %2, align 4
  br label %40

40:                                               ; preds = %35, %31, %27
  %41 = load float, ptr %2, align 4
  ret float %41
}