; Function Attrs: mustprogress nofree nounwind willreturn memory(write) uwtable
define internal float @avifToGammaHLG(float noundef %0) #5 {
  %2 = fmul float %0, 2.030000e+02
  %3 = fdiv float %2, 1.000000e+03
  %4 = fcmp olt float %3, 0.000000e+00
  %5 = fcmp ogt float %3, 1.000000e+00
  %6 = select i1 %5, float 1.000000e+00, float %3
  %7 = select i1 %4, float 0.000000e+00, float %6
  %8 = tail call float @powf(float noundef %7, float noundef 0x3FEAAAAAA0000000) #9
  %9 = fcmp olt float %8, 0.000000e+00
  br i1 %9, label %19, label %10

10:                                               ; preds = %1
  %11 = fcmp ugt float %8, 0x3FB5555560000000
  br i1 %11, label %15, label %12

12:                                               ; preds = %10
  %13 = fmul float %8, 3.000000e+00
  %14 = tail call float @sqrtf(float noundef %13) #9
  br label %19

15:                                               ; preds = %10
  %16 = tail call float @llvm.fmuladd.f32(float %8, float 1.200000e+01, float 0xBFD2380400000000)
  %17 = tail call float @logf(float noundef %16) #9
  %18 = tail call float @llvm.fmuladd.f32(float %17, float 0x3FC6E3FE00000000, float 0x3FE1EAC9E0000000)
  br label %19

19:                                               ; preds = %1, %15, %12
  %.0 = phi float [ %14, %12 ], [ %18, %15 ], [ 0.000000e+00, %1 ]
  ret float %.0
}